; Function Attrs: nounwind uwtable
define hidden void @_glfwRequestWindowAttentionWayland(ptr noundef %0) local_unnamed_addr #0 {
  %2 = load ptr, ptr getelementptr inbounds nuw (i8, ptr @_glfw, i64 134016), align 8, !tbaa !250
  %.not = icmp eq ptr %2, null
  br i1 %.not, label %24, label %3

3:                                                ; preds = %1
  %4 = getelementptr inbounds nuw i8, ptr %0, i64 1112
  %5 = load ptr, ptr %4, align 8, !tbaa !240
  %.not6 = icmp eq ptr %5, null
  br i1 %.not6, label %11, label %6

6:                                                ; preds = %3
  %7 = load ptr, ptr getelementptr inbounds nuw (i8, ptr @_glfw, i64 137528), align 8, !tbaa !136
  %8 = load ptr, ptr getelementptr inbounds nuw (i8, ptr @_glfw, i64 137520), align 8, !tbaa !93
  %9 = tail call i32 %8(ptr noundef nonnull %5) #20
  %10 = tail call ptr (ptr, i32, ptr, i32, i32, ...) %7(ptr noundef nonnull %5, i32 noundef 4, ptr noundef null, i32 noundef %9, i32 noundef 1) #20
  %.pre = load ptr, ptr getelementptr inbounds nuw (i8, ptr @_glfw, i64 134016), align 8, !tbaa !250
  br label %11

11:                                               ; preds = %6, %3
  %12 = phi ptr [ %.pre, %6 ], [ %2, %3 ]
  %13 = load ptr, ptr getelementptr inbounds nuw (i8, ptr @_glfw, i64 137528), align 8, !tbaa !136
  %14 = load ptr, ptr getelementptr inbounds nuw (i8, ptr @_glfw, i64 137520), align 8, !tbaa !93
  %15 = tail call i32 %14(ptr noundef %12) #20
  %16 = tail call ptr (ptr, i32, ptr, i32, i32, ...) %13(ptr noundef %12, i32 noundef 1, ptr noundef nonnull @_glfw_xdg_activation_token_v1_interface, i32 noundef %15, i32 noundef 0, ptr noundef null) #20
  store ptr %16, ptr %4, align 8, !tbaa !240
  %17 = load ptr, ptr getelementptr inbounds nuw (i8, ptr @_glfw, i64 137456), align 8, !tbaa !176
  %18 = tail call i32 %17(ptr noundef %16, ptr noundef nonnull @xdgActivationListener, ptr noundef nonnull %0) #20
  %19 = load ptr, ptr %4, align 8, !tbaa !240
  %20 = load ptr, ptr getelementptr inbounds nuw (i8, ptr @_glfw, i64 137528), align 8, !tbaa !136
  %21 = load ptr, ptr getelementptr inbounds nuw (i8, ptr @_glfw, i64 137520), align 8, !tbaa !93
  %22 = tail call i32 %21(ptr noundef %19) #20
  %23 = tail call ptr (ptr, i32, ptr, i32, i32, ...) %20(ptr noundef %19, i32 noundef 3, ptr noundef null, i32 noundef %22, i32 noundef 0) #20
  br label %24

24:                                               ; preds = %1, %11
  ret void
}